target datalayout = "e-m:e-p270:32:32-p271:32:32-p272:64:64-i64:64-i128:128-f80:128-n8:16:32:64-S128"
target triple = "x86_64-unknown-linux-gnu"

%struct.snd_timer_hardware = type { i32, i64, i64, i64, i64, ptr, ptr, ptr, ptr, ptr, ptr, ptr }
%struct.snd_timer_id = type { i32, i32, i32, i32, i32 }

@.str = private unnamed_addr constant [66 x i8] c"pcm timer resolution out of range (rate = %u, period_size = %lu)\0A\00", align 1
@.str.1 = private unnamed_addr constant [4 x i8] c"PCM\00", align 1
@.str.2 = private unnamed_addr constant [16 x i8] c"PCM %s %i-%i-%i\00", align 1
@.str.3 = private unnamed_addr constant [8 x i8] c"capture\00", align 1
@.str.4 = private unnamed_addr constant [9 x i8] c"playback\00", align 1
@snd_pcm_timer = internal unnamed_addr constant %struct.snd_timer_hardware { i32 5, i64 0, i64 0, i64 0, i64 1, ptr null, ptr null, ptr @snd_pcm_timer_resolution, ptr @snd_pcm_timer_start, ptr @snd_pcm_timer_stop, ptr null, ptr null }, align 8

; Function Attrs: fn_ret_thunk_extern nounwind null_pointer_is_valid
define dso_local void @snd_pcm_timer_resolution_change(ptr nocapture noundef readonly %0) local_unnamed_addr #0 align 16 {
  %2 = getelementptr inbounds i8, ptr %0, i64 192
  %3 = load ptr, ptr %2, align 8
  %4 = getelementptr inbounds i8, ptr %3, i64 108
  %5 = load i32, ptr %4, align 4
  %6 = icmp eq i32 %5, 0
  br i1 %6, label %45, label %7

7:                                                ; preds = %1
  %8 = getelementptr inbounds i8, ptr %3, i64 120
  %9 = load i64, ptr %8, align 8
  %10 = icmp eq i64 %9, 0
  br i1 %10, label %45, label %11

11:                                               ; preds = %7
  %12 = zext i32 %5 to i64
  %13 = tail call i64 @gcd(i64 noundef 1000000000, i64 noundef %12) #12
  %14 = udiv i64 %12, %13
  %15 = udiv i64 1000000000, %13
  %16 = tail call i64 @gcd(i64 noundef %14, i64 noundef %9) #12
  %17 = udiv i64 %14, %16
  %18 = udiv i64 %9, %16
  %19 = tail call { i64, i1 } @llvm.umul.with.overflow.i64(i64 %18, i64 %15)
  %20 = extractvalue { i64, i1 } %19, 1
  br i1 %20, label %21, label %28

21:                                               ; preds = %21, %11
  %22 = phi i64 [ %24, %21 ], [ %15, %11 ]
  %23 = phi i64 [ %25, %21 ], [ 1, %11 ]
  %24 = lshr i64 %22, 1
  %25 = shl i64 %23, 1
  %26 = tail call { i64, i1 } @llvm.umul.with.overflow.i64(i64 %18, i64 %24)
  %27 = extractvalue { i64, i1 } %26, 1
  br i1 %27, label %21, label %28, !llvm.loop !5

28:                                               ; preds = %21, %11
  %29 = phi { i64, i1 } [ %19, %11 ], [ %26, %21 ]
  %30 = phi i64 [ 1, %11 ], [ %25, %21 ]
  %31 = icmp ugt i64 %16, %14
  br i1 %31, label %32, label %37

32:                                               ; preds = %28
  %33 = load ptr, ptr %0, align 8
  %34 = load ptr, ptr %33, align 8
  %35 = getelementptr inbounds i8, ptr %34, i64 640
  %36 = load ptr, ptr %35, align 8
  tail call void (ptr, ptr, ...) @_dev_err(ptr noundef %36, ptr noundef nonnull @.str, i32 noundef %5, i64 noundef %9) #13
  br label %42

37:                                               ; preds = %28
  %38 = extractvalue { i64, i1 } %29, 0
  %39 = udiv i64 %38, %17
  %40 = mul i64 %39, %30
  %41 = trunc i64 %40 to i32
  br label %42

42:                                               ; preds = %37, %32
  %43 = phi i32 [ %41, %37 ], [ -1, %32 ]
  %44 = getelementptr inbounds i8, ptr %3, i64 744
  store i32 %43, ptr %44, align 8
  br label %45

45:                                               ; preds = %42, %7, %1
  ret void
}

; Function Attrs: nocallback nofree nosync nounwind willreturn memory(argmem: readwrite)
declare void @llvm.lifetime.start.p0(i64 immarg, ptr nocapture) #1

; Function Attrs: nocallback nofree nosync nounwind willreturn memory(argmem: readwrite)
declare void @llvm.lifetime.end.p0(i64 immarg, ptr nocapture) #1

; Function Attrs: mustprogress nofree nosync nounwind null_pointer_is_valid willreturn memory(none)
declare dso_local i64 @gcd(i64 noundef, i64 noundef) local_unnamed_addr #2

; Function Attrs: cold null_pointer_is_valid
declare dso_local void @_dev_err(ptr noundef, ptr noundef, ...) local_unnamed_addr #3

; Function Attrs: fn_ret_thunk_extern nounwind null_pointer_is_valid
define dso_local void @snd_pcm_timer_init(ptr noundef %0) local_unnamed_addr #0 align 16 {
  %2 = alloca %struct.snd_timer_id, align 4
  %3 = alloca ptr, align 8
  call void @llvm.lifetime.start.p0(i64 20, ptr nonnull %2) #14
  call void @llvm.memset.p0.i64(ptr noundef nonnull align 4 dereferenceable(20) %2, i8 0, i64 20, i1 false), !annotation !8
  call void @llvm.lifetime.start.p0(i64 8, ptr nonnull %3) #14
  store ptr null, ptr %3, align 8, !annotation !8
  %4 = getelementptr inbounds i8, ptr %2, i64 4
  store i32 0, ptr %4, align 4
  store i32 3, ptr %2, align 4
  %5 = load ptr, ptr %0, align 8
  %6 = load ptr, ptr %5, align 8
  %7 = load i32, ptr %6, align 8
  %8 = getelementptr inbounds i8, ptr %2, i64 8
  store i32 %7, ptr %8, align 4
  %9 = getelementptr inbounds i8, ptr %5, i64 24
  %10 = load i32, ptr %9, align 8
  %11 = getelementptr inbounds i8, ptr %2, i64 12
  store i32 %10, ptr %11, align 4
  %12 = getelementptr inbounds i8, ptr %0, i64 24
  %13 = load i32, ptr %12, align 8
  %14 = shl i32 %13, 1
  %15 = getelementptr inbounds i8, ptr %0, i64 60
  %16 = load i32, ptr %15, align 4
  %17 = and i32 %16, 1
  %18 = or disjoint i32 %17, %14
  %19 = getelementptr inbounds i8, ptr %2, i64 16
  store i32 %18, ptr %19, align 4
  %20 = load ptr, ptr %5, align 8
  %21 = call i32 @snd_timer_new(ptr noundef %20, ptr noundef nonnull @.str.1, ptr noundef nonnull %2, ptr noundef nonnull %3) #14
  %22 = icmp slt i32 %21, 0
  br i1 %22, label %47, label %23

23:                                               ; preds = %1
  %24 = load ptr, ptr %3, align 8
  %25 = getelementptr inbounds i8, ptr %24, i64 96
  %26 = load i32, ptr %15, align 4
  %27 = icmp eq i32 %26, 1
  %28 = select i1 %27, ptr @.str.3, ptr @.str.4
  %29 = load i32, ptr %8, align 4
  %30 = load i32, ptr %11, align 4
  %31 = load i32, ptr %19, align 4
  %32 = call i32 (ptr, ptr, ...) @sprintf(ptr noundef %25, ptr noundef nonnull dereferenceable(1) @.str.2, ptr noundef nonnull %28, i32 noundef %29, i32 noundef %30, i32 noundef %31) #14
  %33 = load ptr, ptr %3, align 8
  %34 = getelementptr inbounds i8, ptr %33, i64 208
  call void @llvm.memcpy.p0.p0.i64(ptr noundef align 8 dereferenceable(96) %34, ptr noundef nonnull align 8 dereferenceable(96) @snd_pcm_timer, i64 96, i1 false)
  %35 = getelementptr inbounds i8, ptr %33, i64 8
  %36 = load ptr, ptr %35, align 8
  %37 = call i32 @snd_device_register(ptr noundef %36, ptr noundef %33) #14
  %38 = icmp slt i32 %37, 0
  %39 = load ptr, ptr %3, align 8
  br i1 %38, label %40, label %43

40:                                               ; preds = %23
  %41 = getelementptr inbounds i8, ptr %39, i64 8
  %42 = load ptr, ptr %41, align 8
  call void @snd_device_free(ptr noundef %42, ptr noundef %39) #14
  br label %47

43:                                               ; preds = %23
  %44 = getelementptr inbounds i8, ptr %39, i64 192
  store ptr %0, ptr %44, align 8
  %45 = getelementptr inbounds i8, ptr %39, i64 200
  store ptr @snd_pcm_timer_free, ptr %45, align 8
  %46 = getelementptr inbounds i8, ptr %0, i64 200
  store ptr %39, ptr %46, align 8
  br label %47

47:                                               ; preds = %43, %40, %1
  call void @llvm.lifetime.end.p0(i64 8, ptr nonnull %3) #14
  call void @llvm.lifetime.end.p0(i64 20, ptr nonnull %2) #14
  ret void
}

; Function Attrs: nocallback nofree nounwind willreturn memory(argmem: write)
declare void @llvm.memset.p0.i64(ptr nocapture writeonly, i8, i64, i1 immarg) #4

; Function Attrs: null_pointer_is_valid
declare dso_local i32 @snd_timer_new(ptr noundef, ptr noundef, ptr noundef, ptr noundef) local_unnamed_addr #5

; Function Attrs: nofree nounwind null_pointer_is_valid
declare dso_local noundef i32 @sprintf(ptr noalias nocapture noundef writeonly, ptr nocapture noundef readonly, ...) local_unnamed_addr #6

; Function Attrs: nocallback nofree nounwind willreturn memory(argmem: readwrite)
declare void @llvm.memcpy.p0.p0.i64(ptr noalias nocapture writeonly, ptr noalias nocapture readonly, i64, i1 immarg) #7

; Function Attrs: null_pointer_is_valid
declare dso_local i32 @snd_device_register(ptr noundef, ptr noundef) local_unnamed_addr #5

; Function Attrs: null_pointer_is_valid
declare dso_local void @snd_device_free(ptr noundef, ptr noundef) local_unnamed_addr #5

; Function Attrs: fn_ret_thunk_extern mustprogress nofree norecurse nosync nounwind null_pointer_is_valid willreturn memory(write, argmem: readwrite, inaccessiblemem: none)
define internal void @snd_pcm_timer_free(ptr nocapture noundef readonly %0) #8 align 16 {
  %2 = getelementptr inbounds i8, ptr %0, i64 192
  %3 = load ptr, ptr %2, align 8
  %4 = getelementptr inbounds i8, ptr %3, i64 200
  store ptr null, ptr %4, align 8
  ret void
}

; Function Attrs: fn_ret_thunk_extern nounwind null_pointer_is_valid
define dso_local void @snd_pcm_timer_done(ptr nocapture noundef %0) local_unnamed_addr #0 align 16 {
  %2 = getelementptr inbounds i8, ptr %0, i64 200
  %3 = load ptr, ptr %2, align 8
  %4 = icmp eq ptr %3, null
  br i1 %4, label %8, label %5

5:                                                ; preds = %1
  %6 = load ptr, ptr %0, align 8
  %7 = load ptr, ptr %6, align 8
  tail call void @snd_device_free(ptr noundef %7, ptr noundef nonnull %3) #14
  store ptr null, ptr %2, align 8
  br label %8

8:                                                ; preds = %5, %1
  ret void
}

; Function Attrs: fn_ret_thunk_extern mustprogress nofree norecurse nosync nounwind null_pointer_is_valid willreturn memory(read, inaccessiblemem: none)
define internal i64 @snd_pcm_timer_resolution(ptr nocapture noundef readonly %0) #9 align 16 {
  %2 = getelementptr inbounds i8, ptr %0, i64 192
  %3 = load ptr, ptr %2, align 8
  %4 = getelementptr inbounds i8, ptr %3, i64 192
  %5 = load ptr, ptr %4, align 8
  %6 = icmp eq ptr %5, null
  br i1 %6, label %11, label %7

7:                                                ; preds = %1
  %8 = getelementptr inbounds i8, ptr %5, i64 744
  %9 = load i32, ptr %8, align 8
  %10 = zext i32 %9 to i64
  br label %11

11:                                               ; preds = %7, %1
  %12 = phi i64 [ %10, %7 ], [ 0, %1 ]
  ret i64 %12
}

; Function Attrs: fn_ret_thunk_extern mustprogress nofree norecurse nosync nounwind null_pointer_is_valid willreturn memory(readwrite, inaccessiblemem: none)
define internal noundef i32 @snd_pcm_timer_start(ptr nocapture noundef readonly %0) #10 align 16 {
  %2 = getelementptr inbounds i8, ptr %0, i64 192
  %3 = load ptr, ptr %2, align 8
  %4 = getelementptr inbounds i8, ptr %3, i64 208
  %5 = load i8, ptr %4, align 8
  %6 = or i8 %5, 1
  store i8 %6, ptr %4, align 8
  ret i32 0
}

; Function Attrs: fn_ret_thunk_extern mustprogress nofree norecurse nosync nounwind null_pointer_is_valid willreturn memory(readwrite, inaccessiblemem: none)
define internal noundef i32 @snd_pcm_timer_stop(ptr nocapture noundef readonly %0) #10 align 16 {
  %2 = getelementptr inbounds i8, ptr %0, i64 192
  %3 = load ptr, ptr %2, align 8
  %4 = getelementptr inbounds i8, ptr %3, i64 208
  %5 = load i8, ptr %4, align 8
  %6 = and i8 %5, -2
  store i8 %6, ptr %4, align 8
  ret i32 0
}

; Function Attrs: nocallback nofree nosync nounwind speculatable willreturn memory(none)
declare { i64, i1 } @llvm.umul.with.overflow.i64(i64, i64) #11


!llvm.module.flags = !{!0, !1, !2, !3, !4}

!0 = !{i32 1, !"wchar_size", i32 2}
!1 = !{i32 8, !"cf-protection-branch", i32 1}
!2 = !{i32 4, !"function_return_thunk_extern", i32 1}
!3 = !{i32 4, !"indirect_branch_cs_prefix", i32 1}
!4 = !{i32 4, !"SkipRaxSetup", i32 1}
!5 = distinct !{!5, !6, !7}
!6 = !{!"llvm.loop.mustprogress"}
!7 = !{!"llvm.loop.unroll.disable"}
!8 = !{!"auto-init"}
